target datalayout = "e-m:e-p270:32:32-p271:32:32-p272:64:64-i64:64-i128:128-f80:128-n8:16:32:64-S128"
target triple = "x86_64-pc-linux-gnu"

%struct._zend_executor_globals = type { %struct._zval_struct, %struct._zval_struct, [32 x ptr], ptr, ptr, %struct._zend_array, %struct._zend_array, ptr, i32, i8, %struct._zval_struct, i32, ptr, ptr, ptr, ptr, ptr, ptr, i64, ptr, ptr, i32, ptr, i32, i64, i32, i32, i32, i8, i8, %struct.zend_atomic_bool_s, %struct.zend_atomic_bool_s, ptr, i64, ptr, ptr, %struct._zend_array, %struct._zend_array, i32, i8, %struct._zval_struct, %struct._zval_struct, %struct._zend_stack, %struct._zend_stack, %struct._zend_stack, ptr, i32, i32, i64, ptr, ptr, ptr, %struct._zend_objects_store, %struct._zend_lazy_objects_store, ptr, ptr, ptr, [3 x %struct._zend_op], ptr, i8, i8, i64, i32, i32, ptr, [16 x %struct._HashTableIterator], ptr, %union._zend_function, %struct._zend_op, %struct._zend_array, i64, %struct.zend_get_gc_buffer, ptr, ptr, ptr, i64, i8, i32, ptr, ptr, i64, %struct._zend_call_stack, i64, i64, %struct._zend_strtod_state, [6 x ptr] }
%struct.zend_atomic_bool_s = type { i8 }
%struct._zval_struct = type { %union._zend_value, %union.anon, %union.anon.2 }
%union._zend_value = type { i64 }
%union.anon = type { i32 }
%union.anon.2 = type { i32 }
%struct._zend_stack = type { i32, i32, i32, ptr }
%struct._zend_objects_store = type { ptr, i32, i32, i32 }
%struct._zend_lazy_objects_store = type { %struct._zend_array }
%struct._HashTableIterator = type { ptr, i32, i32 }
%union._zend_function = type { %struct._zend_op_array }
%struct._zend_op_array = type { i8, [3 x i8], i32, ptr, ptr, ptr, i32, i32, ptr, ptr, ptr, ptr, i32, ptr, i32, i32, i32, ptr, ptr, ptr, ptr, ptr, i32, i32, ptr, ptr, ptr, i32, i32, i32, i32, ptr, ptr, [6 x ptr] }
%struct._zend_op = type { ptr, %union._znode_op, %union._znode_op, %union._znode_op, i32, i32, i8, i8, i8, i8 }
%union._znode_op = type { i32 }
%struct._zend_array = type { %struct._zend_refcounted_h, %union.anon.4, i32, %union.anon.6, i32, i32, i32, i32, i64, ptr }
%struct._zend_refcounted_h = type { i32, %union.anon.3 }
%union.anon.3 = type { i32 }
%union.anon.4 = type { i32 }
%union.anon.6 = type { ptr }
%struct.zend_get_gc_buffer = type { ptr, ptr, ptr }
%struct._zend_call_stack = type { ptr, i64 }
%struct._zend_strtod_state = type { [8 x ptr], ptr, ptr }
%struct._zend_execute_data = type { ptr, ptr, ptr, ptr, %struct._zval_struct, ptr, ptr, ptr, ptr }

@executor_globals = external global %struct._zend_executor_globals, align 8
@phar_ce_PharException = internal global ptr null, align 8
@.str.9 = private unnamed_addr constant [3 x i8] c"%s\00", align 1
@.str.42 = private unnamed_addr constant [5 x i8] c"p|s!\00", align 1

; Function Attrs: nounwind uwtable
define hidden void @zim_Phar_loadPhar(ptr noundef %0, ptr noundef %1) #0 {
  %3 = alloca ptr, align 8
  %4 = alloca ptr, align 8
  %5 = alloca ptr, align 8
  %6 = alloca ptr, align 8
  %7 = alloca ptr, align 8
  %8 = alloca i64, align 8
  %9 = alloca i64, align 8
  %10 = alloca i32, align 4
  store ptr %0, ptr %3, align 8, !tbaa !4
  store ptr %1, ptr %4, align 8, !tbaa !9
  call void @llvm.lifetime.start.p0(i64 8, ptr %5) #17
  call void @llvm.lifetime.start.p0(i64 8, ptr %6) #17
  store ptr null, ptr %6, align 8, !tbaa !49
  call void @llvm.lifetime.start.p0(i64 8, ptr %7) #17
  call void @llvm.lifetime.start.p0(i64 8, ptr %8) #17
  call void @llvm.lifetime.start.p0(i64 8, ptr %9) #17
  store i64 0, ptr %9, align 8, !tbaa !52
  %11 = load ptr, ptr %3, align 8, !tbaa !4
  %12 = getelementptr inbounds nuw %struct._zend_execute_data, ptr %11, i32 0, i32 4
  %13 = getelementptr inbounds nuw %struct._zval_struct, ptr %12, i32 0, i32 2
  %14 = load i32, ptr %13, align 4, !tbaa !13
  %15 = call i32 (i32, ptr, ...) @zend_parse_parameters(i32 noundef %14, ptr noundef @.str.42, ptr noundef %5, ptr noundef %8, ptr noundef %6, ptr noundef %9)
  %16 = icmp eq i32 %15, -1
  br i1 %16, label %17, label %23

17:                                               ; preds = %2
  br label %18

18:                                               ; preds = %17
  %19 = load ptr, ptr getelementptr inbounds nuw (%struct._zend_executor_globals, ptr @executor_globals, i32 0, i32 54), align 8, !tbaa !14
  %20 = icmp ne ptr %19, null
  call void @llvm.assume(i1 %20)
  store i32 1, ptr %10, align 4
  br label %44

21:                                               ; No predecessors!
  br label %22

22:                                               ; preds = %21
  br label %23

23:                                               ; preds = %22, %2
  call void @phar_request_initialize()
  br label %24

24:                                               ; preds = %23
  %25 = load ptr, ptr %5, align 8, !tbaa !49
  %26 = load i64, ptr %8, align 8, !tbaa !52
  %27 = load ptr, ptr %6, align 8, !tbaa !49
  %28 = load i64, ptr %9, align 8, !tbaa !52
  %29 = call i32 @phar_open_from_filename(ptr noundef %25, i64 noundef %26, ptr noundef %27, i64 noundef %28, i32 noundef 8, ptr noundef null, ptr noundef %7)
  %30 = icmp eq i32 %29, 0
  %31 = select i1 %30, i32 3, i32 2
  %32 = load ptr, ptr %4, align 8, !tbaa !9
  %33 = getelementptr inbounds nuw %struct._zval_struct, ptr %32, i32 0, i32 1
  store i32 %31, ptr %33, align 8, !tbaa !13
  br label %34

34:                                               ; preds = %24
  br label %35

35:                                               ; preds = %34
  %36 = load ptr, ptr %7, align 8, !tbaa !49
  %37 = icmp ne ptr %36, null
  br i1 %37, label %38, label %43

38:                                               ; preds = %35
  %39 = load ptr, ptr @phar_ce_PharException, align 8, !tbaa !53
  %40 = load ptr, ptr %7, align 8, !tbaa !49
  %41 = call ptr (ptr, i64, ptr, ...) @zend_throw_exception_ex(ptr noundef %39, i64 noundef 0, ptr noundef @.str.9, ptr noundef %40)
  %42 = load ptr, ptr %7, align 8, !tbaa !49
  call void @_efree(ptr noundef %42)
  br label %43

43:                                               ; preds = %38, %35
  store i32 0, ptr %10, align 4
  br label %44

44:                                               ; preds = %43, %18
  call void @llvm.lifetime.end.p0(i64 8, ptr %9) #17
  call void @llvm.lifetime.end.p0(i64 8, ptr %8) #17
  call void @llvm.lifetime.end.p0(i64 8, ptr %7) #17
  call void @llvm.lifetime.end.p0(i64 8, ptr %6) #17
  call void @llvm.lifetime.end.p0(i64 8, ptr %5) #17
  %45 = load i32, ptr %10, align 4
  switch i32 %45, label %47 [
    i32 0, label %46
    i32 1, label %46
  ]

46:                                               ; preds = %44, %44
  ret void

47:                                               ; preds = %44
  unreachable
}