; Function Attrs: nounwind uwtable
define hidden void @zim_Phar_loadPhar(ptr noundef readonly captures(none) %0, ptr noundef writeonly captures(none) %1) #0 {
  %3 = alloca ptr, align 8
  %4 = alloca ptr, align 8
  %5 = alloca ptr, align 8
  %6 = alloca i64, align 8
  %7 = alloca i64, align 8
  call void @llvm.lifetime.start.p0(i64 8, ptr nonnull %3) #20
  call void @llvm.lifetime.start.p0(i64 8, ptr nonnull %4) #20
  store ptr null, ptr %4, align 8, !tbaa !47
  call void @llvm.lifetime.start.p0(i64 8, ptr nonnull %5) #20
  call void @llvm.lifetime.start.p0(i64 8, ptr nonnull %6) #20
  call void @llvm.lifetime.start.p0(i64 8, ptr nonnull %7) #20
  store i64 0, ptr %7, align 8, !tbaa !50
  %8 = getelementptr inbounds nuw i8, ptr %0, i64 44
  %9 = load i32, ptr %8, align 4, !tbaa !8
  %10 = call i32 (i32, ptr, ...) @zend_parse_parameters(i32 noundef %9, ptr noundef nonnull @.str.42, ptr noundef nonnull %3, ptr noundef nonnull %6, ptr noundef nonnull %4, ptr noundef nonnull %7) #20
  %11 = icmp eq i32 %10, -1
  br i1 %11, label %12, label %15

12:                                               ; preds = %2
  %13 = load ptr, ptr getelementptr inbounds nuw (i8, ptr @executor_globals, i64 960), align 8, !tbaa !9
  %14 = icmp ne ptr %13, null
  call void @llvm.assume(i1 %14)
  br label %29

15:                                               ; preds = %2
  call void @phar_request_initialize() #20
  %16 = load ptr, ptr %3, align 8, !tbaa !47
  %17 = load i64, ptr %6, align 8, !tbaa !50
  %18 = load ptr, ptr %4, align 8, !tbaa !47
  %19 = load i64, ptr %7, align 8, !tbaa !50
  %20 = call i32 @phar_open_from_filename(ptr noundef %16, i64 noundef %17, ptr noundef %18, i64 noundef %19, i32 noundef 8, ptr noundef null, ptr noundef nonnull %5) #20
  %21 = icmp eq i32 %20, 0
  %22 = select i1 %21, i32 3, i32 2
  %23 = getelementptr inbounds nuw i8, ptr %1, i64 8
  store i32 %22, ptr %23, align 8, !tbaa !8
  %24 = load ptr, ptr %5, align 8, !tbaa !47
  %.not = icmp eq ptr %24, null
  br i1 %.not, label %29, label %25

25:                                               ; preds = %15
  %26 = load ptr, ptr @phar_ce_PharException, align 8, !tbaa !54
  %27 = call ptr (ptr, i64, ptr, ...) @zend_throw_exception_ex(ptr noundef %26, i64 noundef 0, ptr noundef nonnull @.str.9, ptr noundef nonnull %24) #20
  %28 = load ptr, ptr %5, align 8, !tbaa !47
  call void @_efree(ptr noundef %28) #20
  br label %29

29:                                               ; preds = %15, %25, %12
  call void @llvm.lifetime.end.p0(i64 8, ptr nonnull %7) #20
  call void @llvm.lifetime.end.p0(i64 8, ptr nonnull %6) #20
  call void @llvm.lifetime.end.p0(i64 8, ptr nonnull %5) #20
  call void @llvm.lifetime.end.p0(i64 8, ptr nonnull %4) #20
  call void @llvm.lifetime.end.p0(i64 8, ptr nonnull %3) #20
  ret void
}